(lp0
S'Costo'
p1
aS'Tipo de servicio'
p2
a.(dp3
g2
(lp4
S'Una vez al mes'
p5
aS'Una vez a la semana'
p6
asg1
(lp7
S'20'
p8
aS'30'
p9
as.(lp10
.(lp11
.(dp12
g2
(lp13
F0.5
aF0.5
asg1
(lp14
F0.5
aF0.5
as.S'5'
p15
.S'2'
p16
.